target datalayout = "e-m:e-p270:32:32-p271:32:32-p272:64:64-i64:64-i128:128-f80:128-n8:16:32:64-S128"
target triple = "x86_64-unknown-linux-gnu"

%struct._GPtrArray = type { ptr, i32 }
%struct.GlobalProperty = type { ptr, ptr, ptr, i8, i8 }

@global_props.gp = internal global ptr null, align 8

; Function Attrs: nounwind sspstrong uwtable
define internal ptr @global_props() #0 {
entry:
  %0 = load ptr, ptr @global_props.gp, align 8
  %tobool = icmp ne ptr %0, null
  br i1 %tobool, label %if.end, label %if.then

if.then:                                          ; preds = %entry
  %call = call ptr @g_ptr_array_new()
  store ptr %call, ptr @global_props.gp, align 8
  br label %if.end

if.end:                                           ; preds = %if.then, %entry
  %1 = load ptr, ptr @global_props.gp, align 8
  ret ptr %1
}

; Function Attrs: nounwind sspstrong uwtable
define dso_local ptr @qdev_find_global_prop(ptr noundef %obj, ptr noundef %name) #0 {
entry:
  %retval = alloca ptr, align 8
  %obj.addr = alloca ptr, align 8
  %name.addr = alloca ptr, align 8
  %props = alloca ptr, align 8
  %p = alloca ptr, align 8
  %i = alloca i32, align 4
  store ptr %obj, ptr %obj.addr, align 8
  store ptr %name, ptr %name.addr, align 8
  %call = call ptr @global_props()
  store ptr %call, ptr %props, align 8
  store i32 0, ptr %i, align 4
  br label %for.cond

for.cond:                                         ; preds = %for.inc, %entry
  %0 = load i32, ptr %i, align 4
  %1 = load ptr, ptr %props, align 8
  %len = getelementptr inbounds %struct._GPtrArray, ptr %1, i32 0, i32 1
  %2 = load i32, ptr %len, align 8
  %cmp = icmp ult i32 %0, %2
  br i1 %cmp, label %for.body, label %for.end

for.body:                                         ; preds = %for.cond
  %3 = load ptr, ptr %props, align 8
  %pdata = getelementptr inbounds %struct._GPtrArray, ptr %3, i32 0, i32 0
  %4 = load ptr, ptr %pdata, align 8
  %5 = load i32, ptr %i, align 4
  %idxprom = sext i32 %5 to i64
  %arrayidx = getelementptr ptr, ptr %4, i64 %idxprom
  %6 = load ptr, ptr %arrayidx, align 8
  store ptr %6, ptr %p, align 8
  %7 = load ptr, ptr %obj.addr, align 8
  %8 = load ptr, ptr %p, align 8
  %driver = getelementptr inbounds %struct.GlobalProperty, ptr %8, i32 0, i32 0
  %9 = load ptr, ptr %driver, align 8
  %call1 = call ptr @object_dynamic_cast(ptr noundef %7, ptr noundef %9)
  %tobool = icmp ne ptr %call1, null
  br i1 %tobool, label %land.lhs.true, label %if.end

land.lhs.true:                                    ; preds = %for.body
  %10 = load ptr, ptr %p, align 8
  %property = getelementptr inbounds %struct.GlobalProperty, ptr %10, i32 0, i32 1
  %11 = load ptr, ptr %property, align 8
  %12 = load ptr, ptr %name.addr, align 8
  %call2 = call i32 @strcmp(ptr noundef %11, ptr noundef %12) #11
  %tobool3 = icmp ne i32 %call2, 0
  br i1 %tobool3, label %if.end, label %if.then

if.then:                                          ; preds = %land.lhs.true
  %13 = load ptr, ptr %p, align 8
  store ptr %13, ptr %retval, align 8
  br label %return

if.end:                                           ; preds = %land.lhs.true, %for.body
  br label %for.inc

for.inc:                                          ; preds = %if.end
  %14 = load i32, ptr %i, align 4
  %inc = add i32 %14, 1
  store i32 %inc, ptr %i, align 4
  br label %for.cond, !llvm.loop !14

for.end:                                          ; preds = %for.cond
  store ptr null, ptr %retval, align 8
  br label %return

return:                                           ; preds = %for.end, %if.then
  %15 = load ptr, ptr %retval, align 8
  ret ptr %15
}