; Function Attrs: nounwind sspstrong uwtable
define dso_local noundef ptr @qdev_find_global_prop(ptr noundef %obj, ptr noundef readonly captures(none) %name) local_unnamed_addr #0 {
entry:
  %0 = load ptr, ptr @global_props.gp, align 8
  %tobool.not.i = icmp eq ptr %0, null
  br i1 %tobool.not.i, label %if.then.i, label %global_props.exit

if.then.i:                                        ; preds = %entry
  %call.i = tail call ptr @g_ptr_array_new() #9
  store ptr %call.i, ptr @global_props.gp, align 8
  br label %global_props.exit

global_props.exit:                                ; preds = %entry, %if.then.i
  %1 = phi ptr [ %call.i, %if.then.i ], [ %0, %entry ]
  %len = getelementptr inbounds nuw i8, ptr %1, i64 8
  %2 = load i32, ptr %len, align 8
  %cmp6.not = icmp eq i32 %2, 0
  br i1 %cmp6.not, label %return, label %for.body

for.body:                                         ; preds = %global_props.exit, %for.inc
  %i.07 = phi i32 [ %inc, %for.inc ], [ 0, %global_props.exit ]
  %3 = load ptr, ptr %1, align 8
  %idxprom = sext i32 %i.07 to i64
  %arrayidx = getelementptr ptr, ptr %3, i64 %idxprom
  %4 = load ptr, ptr %arrayidx, align 8
  %5 = load ptr, ptr %4, align 8
  %call1 = tail call ptr @object_dynamic_cast(ptr noundef %obj, ptr noundef %5) #9
  %tobool.not = icmp eq ptr %call1, null
  br i1 %tobool.not, label %for.inc, label %land.lhs.true

land.lhs.true:                                    ; preds = %for.body
  %property = getelementptr inbounds nuw i8, ptr %4, i64 8
  %6 = load ptr, ptr %property, align 8
  %call2 = tail call i32 @strcmp(ptr noundef nonnull dereferenceable(1) %6, ptr noundef nonnull dereferenceable(1) %name) #13
  %tobool3.not = icmp eq i32 %call2, 0
  br i1 %tobool3.not, label %return, label %for.inc

for.inc:                                          ; preds = %for.body, %land.lhs.true
  %inc = add nuw i32 %i.07, 1
  %7 = load i32, ptr %len, align 8
  %cmp = icmp ult i32 %inc, %7
  br i1 %cmp, label %for.body, label %return, !llvm.loop !23

return:                                           ; preds = %land.lhs.true, %for.inc, %global_props.exit
  %retval.0 = phi ptr [ null, %global_props.exit ], [ null, %for.inc ], [ %4, %land.lhs.true ]
  ret ptr %retval.0
}